target datalayout = "e-m:e-p270:32:32-p271:32:32-p272:64:64-i64:64-i128:128-f80:128-n8:16:32:64-S128"
target triple = "x86_64-pc-linux-gnu"

%struct.color_s = type { %union.anon, i32 }
%union.anon = type { [4 x double] }

@stderr = external global ptr, align 8
@.str.74 = private unnamed_addr constant [45 x i8] c"%s:%d: claimed unreachable code was reached\0A\00", align 1
@.str.75 = private unnamed_addr constant [127 x i8] c"generated/home/dtcxzyw/WorkSpace/Projects/compilers/llvm-opt-benchmark/bench/graphviz/graphviz/plugin/core/gvrender_core_svg.c\00", align 1
@.str.95 = private unnamed_addr constant [36 x i8] c"<stop offset=\220\22 style=\22stop-color:\00", align 1
@.str.96 = private unnamed_addr constant [36 x i8] c"<stop offset=\221\22 style=\22stop-color:\00", align 1
@.str.97 = private unnamed_addr constant [40 x i8] c"<stop offset=\22%.03f\22 style=\22stop-color:\00", align 1
@.str.98 = private unnamed_addr constant [15 x i8] c";stop-opacity:\00", align 1
@.str.99 = private unnamed_addr constant [3 x i8] c"%f\00", align 1
@transparent = internal constant [12 x i8] c"transparent\00", align 1
@.str.100 = private unnamed_addr constant [2 x i8] c"0\00", align 1
@.str.101 = private unnamed_addr constant [3 x i8] c"1.\00", align 1
@.str.102 = private unnamed_addr constant [6 x i8] c";\22/>\0A\00", align 1
@black = internal constant [6 x i8] c"black\00", align 1
@.str.103 = private unnamed_addr constant [14 x i8] c"#%02x%02x%02x\00", align 1

; Function Attrs: nounwind uwtable
define internal void @svg_print_gradient_color(ptr noundef %0, ptr noundef byval(%struct.color_s) align 8 %1) #0 {
  %3 = alloca ptr, align 8
  store ptr %0, ptr %3, align 8, !tbaa !3
  %4 = getelementptr inbounds nuw %struct.color_s, ptr %1, i32 0, i32 1
  %5 = load i32, ptr %4, align 8, !tbaa !126
  switch i32 %5, label %34 [
    i32 4, label %6
    i32 1, label %20
  ]

6:                                                ; preds = %2
  %7 = getelementptr inbounds nuw %struct.color_s, ptr %1, i32 0, i32 0
  %8 = load ptr, ptr %7, align 8, !tbaa !47
  %9 = call i32 @strcmp(ptr noundef %8, ptr noundef @transparent) #10
  %10 = icmp ne i32 %9, 0
  br i1 %10, label %14, label %11

11:                                               ; preds = %6
  %12 = load ptr, ptr %3, align 8, !tbaa !3
  %13 = call i32 @gvputs(ptr noundef %12, ptr noundef @black)
  br label %19

14:                                               ; preds = %6
  %15 = load ptr, ptr %3, align 8, !tbaa !3
  %16 = getelementptr inbounds nuw %struct.color_s, ptr %1, i32 0, i32 0
  %17 = load ptr, ptr %16, align 8, !tbaa !47
  %18 = call i32 @gvputs(ptr noundef %15, ptr noundef %17)
  br label %19

19:                                               ; preds = %14, %11
  br label %39

20:                                               ; preds = %2
  %21 = load ptr, ptr %3, align 8, !tbaa !3
  %22 = getelementptr inbounds nuw %struct.color_s, ptr %1, i32 0, i32 0
  %23 = getelementptr inbounds [4 x i8], ptr %22, i64 0, i64 0
  %24 = load i8, ptr %23, align 8, !tbaa !47
  %25 = zext i8 %24 to i32
  %26 = getelementptr inbounds nuw %struct.color_s, ptr %1, i32 0, i32 0
  %27 = getelementptr inbounds [4 x i8], ptr %26, i64 0, i64 1
  %28 = load i8, ptr %27, align 1, !tbaa !47
  %29 = zext i8 %28 to i32
  %30 = getelementptr inbounds nuw %struct.color_s, ptr %1, i32 0, i32 0
  %31 = getelementptr inbounds [4 x i8], ptr %30, i64 0, i64 2
  %32 = load i8, ptr %31, align 2, !tbaa !47
  %33 = zext i8 %32 to i32
  call void (ptr, ptr, ...) @gvprintf(ptr noundef %21, ptr noundef @.str.103, i32 noundef %25, i32 noundef %29, i32 noundef %33)
  br label %39

34:                                               ; preds = %2
  br label %35

35:                                               ; preds = %34
  %36 = load ptr, ptr @stderr, align 8, !tbaa !112
  %37 = call i32 (ptr, ptr, ...) @fprintf(ptr noundef %36, ptr noundef @.str.74, ptr noundef @.str.75, i32 noundef 158) #9
  call void @abort() #11
  unreachable

38:                                               ; No predecessors!
  br label %39

39:                                               ; preds = %38, %20, %19
  ret void
}

; Function Attrs: nounwind uwtable
define internal void @svg_print_stop(ptr noundef %0, double noundef %1, ptr noundef byval(%struct.color_s) align 8 %2) #0 {
  %4 = alloca ptr, align 8
  %5 = alloca double, align 8
  store ptr %0, ptr %4, align 8, !tbaa !3
  store double %1, ptr %5, align 8, !tbaa !121
  %6 = load double, ptr %5, align 8, !tbaa !121
  %7 = fsub double %6, 0.000000e+00
  %8 = call double @llvm.fabs.f64(double %7)
  %9 = fcmp olt double %8, 5.000000e-04
  br i1 %9, label %10, label %13

10:                                               ; preds = %3
  %11 = load ptr, ptr %4, align 8, !tbaa !3
  %12 = call i32 @gvputs(ptr noundef %11, ptr noundef @.str.95)
  br label %25

13:                                               ; preds = %3
  %14 = load double, ptr %5, align 8, !tbaa !121
  %15 = fsub double %14, 1.000000e+00
  %16 = call double @llvm.fabs.f64(double %15)
  %17 = fcmp olt double %16, 5.000000e-04
  br i1 %17, label %18, label %21

18:                                               ; preds = %13
  %19 = load ptr, ptr %4, align 8, !tbaa !3
  %20 = call i32 @gvputs(ptr noundef %19, ptr noundef @.str.96)
  br label %24

21:                                               ; preds = %13
  %22 = load ptr, ptr %4, align 8, !tbaa !3
  %23 = load double, ptr %5, align 8, !tbaa !121
  call void (ptr, ptr, ...) @gvprintf(ptr noundef %22, ptr noundef @.str.97, double noundef %23)
  br label %24

24:                                               ; preds = %21, %18
  br label %25

25:                                               ; preds = %24, %10
  %26 = load ptr, ptr %4, align 8, !tbaa !3
  call void @svg_print_gradient_color(ptr noundef %26, ptr noundef byval(%struct.color_s) align 8 %2)
  %27 = load ptr, ptr %4, align 8, !tbaa !3
  %28 = call i32 @gvputs(ptr noundef %27, ptr noundef @.str.98)
  %29 = getelementptr inbounds nuw %struct.color_s, ptr %2, i32 0, i32 1
  %30 = load i32, ptr %29, align 8, !tbaa !126
  %31 = icmp eq i32 %30, 1
  br i1 %31, label %32, label %46

32:                                               ; preds = %25
  %33 = getelementptr inbounds nuw %struct.color_s, ptr %2, i32 0, i32 0
  %34 = getelementptr inbounds [4 x i8], ptr %33, i64 0, i64 3
  %35 = load i8, ptr %34, align 1, !tbaa !47
  %36 = zext i8 %35 to i32
  %37 = icmp slt i32 %36, 255
  br i1 %37, label %38, label %46

38:                                               ; preds = %32
  %39 = load ptr, ptr %4, align 8, !tbaa !3
  %40 = getelementptr inbounds nuw %struct.color_s, ptr %2, i32 0, i32 0
  %41 = getelementptr inbounds [4 x i8], ptr %40, i64 0, i64 3
  %42 = load i8, ptr %41, align 1, !tbaa !47
  %43 = uitofp i8 %42 to float
  %44 = fpext float %43 to double
  %45 = fdiv double %44, 2.550000e+02
  call void (ptr, ptr, ...) @gvprintf(ptr noundef %39, ptr noundef @.str.99, double noundef %45)
  br label %62

46:                                               ; preds = %32, %25
  %47 = getelementptr inbounds nuw %struct.color_s, ptr %2, i32 0, i32 1
  %48 = load i32, ptr %47, align 8, !tbaa !126
  %49 = icmp eq i32 %48, 4
  br i1 %49, label %50, label %58

50:                                               ; preds = %46
  %51 = getelementptr inbounds nuw %struct.color_s, ptr %2, i32 0, i32 0
  %52 = load ptr, ptr %51, align 8, !tbaa !47
  %53 = call i32 @strcmp(ptr noundef %52, ptr noundef @transparent) #10
  %54 = icmp ne i32 %53, 0
  br i1 %54, label %58, label %55

55:                                               ; preds = %50
  %56 = load ptr, ptr %4, align 8, !tbaa !3
  %57 = call i32 @gvputs(ptr noundef %56, ptr noundef @.str.100)
  br label %61

58:                                               ; preds = %50, %46
  %59 = load ptr, ptr %4, align 8, !tbaa !3
  %60 = call i32 @gvputs(ptr noundef %59, ptr noundef @.str.101)
  br label %61

61:                                               ; preds = %58, %55
  br label %62

62:                                               ; preds = %61, %38
  %63 = load ptr, ptr %4, align 8, !tbaa !3
  %64 = call i32 @gvputs(ptr noundef %63, ptr noundef @.str.102)
  ret void
}