; Function Attrs: nounwind uwtable
define internal fastcc void @svg_print_stop(ptr noundef %0, double noundef %1, ptr noundef readonly byval(%struct.color_s) align 8 captures(none) %2) unnamed_addr #0 {
  %4 = tail call double @llvm.fabs.f64(double %1)
  %5 = fcmp olt double %4, 5.000000e-04
  br i1 %5, label %6, label %8

6:                                                ; preds = %3
  %7 = tail call i32 @gvputs(ptr noundef %0, ptr noundef nonnull @.str.95) #11
  br label %15

8:                                                ; preds = %3
  %9 = fadd double %1, -1.000000e+00
  %10 = tail call double @llvm.fabs.f64(double %9)
  %11 = fcmp olt double %10, 5.000000e-04
  br i1 %11, label %12, label %14

12:                                               ; preds = %8
  %13 = tail call i32 @gvputs(ptr noundef %0, ptr noundef nonnull @.str.96) #11
  br label %15

14:                                               ; preds = %8
  tail call void (ptr, ptr, ...) @gvprintf(ptr noundef %0, ptr noundef nonnull @.str.97, double noundef %1) #11
  br label %15

15:                                               ; preds = %12, %14, %6
  %.sroa.0.0.copyload = load ptr, ptr %2, align 8
  %.sroa.717.0..sroa_idx = getelementptr inbounds nuw i8, ptr %2, i64 32
  %.sroa.717.0.copyload = load i32, ptr %.sroa.717.0..sroa_idx, align 8
  %16 = ptrtoint ptr %.sroa.0.0.copyload to i64
  %17 = lshr i64 %16, 24
  %18 = trunc i64 %17 to i8
  switch i32 %.sroa.717.0.copyload, label %31 [
    i32 4, label %19
    i32 1, label %25
  ]

19:                                               ; preds = %15
  %20 = tail call i32 @strcmp(ptr noundef nonnull dereferenceable(1) %.sroa.0.0.copyload, ptr noundef nonnull dereferenceable(12) @.str.265) #12
  %.not.i = icmp eq i32 %20, 0
  br i1 %.not.i, label %21, label %23

21:                                               ; preds = %19
  %22 = tail call i32 @gvputs(ptr noundef %0, ptr noundef nonnull @.str.70) #11
  br label %svg_print_gradient_color.exit

23:                                               ; preds = %19
  %24 = tail call i32 @gvputs(ptr noundef %0, ptr noundef nonnull %.sroa.0.0.copyload) #11
  br label %svg_print_gradient_color.exit

25:                                               ; preds = %15
  %.sroa.0.0.extract.trunc = trunc i64 %16 to i32
  %26 = and i32 %.sroa.0.0.extract.trunc, 255
  %27 = lshr i32 %.sroa.0.0.extract.trunc, 8
  %28 = and i32 %27, 255
  %29 = lshr i32 %.sroa.0.0.extract.trunc, 16
  %30 = and i32 %29, 255
  tail call void (ptr, ptr, ...) @gvprintf(ptr noundef %0, ptr noundef nonnull @.str.103, i32 noundef %26, i32 noundef %28, i32 noundef %30) #11
  br label %svg_print_gradient_color.exit

31:                                               ; preds = %15
  %32 = load ptr, ptr @stderr, align 8, !tbaa !100
  %33 = tail call i32 (ptr, ptr, ...) @fprintf(ptr noundef %32, ptr noundef nonnull @.str.74, ptr noundef nonnull @.str.75, i32 noundef 158) #13
  tail call void @abort() #14
  unreachable

svg_print_gradient_color.exit:                    ; preds = %21, %23, %25
  %34 = tail call i32 @gvputs(ptr noundef %0, ptr noundef nonnull @.str.98) #11
  %35 = icmp eq i32 %.sroa.717.0.copyload, 1
  %36 = icmp ne i8 %18, -1
  %or.cond = select i1 %35, i1 %36, i1 false
  br i1 %or.cond, label %37, label %40

37:                                               ; preds = %svg_print_gradient_color.exit
  %38 = uitofp i8 %18 to double
  %39 = fdiv double %38, 2.550000e+02
  tail call void (ptr, ptr, ...) @gvprintf(ptr noundef %0, ptr noundef nonnull @.str.99, double noundef %39) #11
  br label %48

40:                                               ; preds = %svg_print_gradient_color.exit
  %41 = icmp eq i32 %.sroa.717.0.copyload, 4
  br i1 %41, label %42, label %46

42:                                               ; preds = %40
  %43 = tail call i32 @strcmp(ptr noundef nonnull dereferenceable(1) %.sroa.0.0.copyload, ptr noundef nonnull dereferenceable(12) @.str.265) #12
  %.not = icmp eq i32 %43, 0
  br i1 %.not, label %44, label %46

44:                                               ; preds = %42
  %45 = tail call i32 @gvputs(ptr noundef %0, ptr noundef nonnull @.str.100) #11
  br label %48

46:                                               ; preds = %42, %40
  %47 = tail call i32 @gvputs(ptr noundef %0, ptr noundef nonnull @.str.101) #11
  br label %48

48:                                               ; preds = %44, %46, %37
  %49 = tail call i32 @gvputs(ptr noundef %0, ptr noundef nonnull @.str.102) #11
  ret void
}